; Function Attrs: nounwind uwtable
define void @EVP_PKEY_meth_free(ptr noundef %0) #0 {
  %.not = icmp eq ptr %0, null
  br i1 %.not, label %7, label %2

2:                                                ; preds = %1
  %3 = getelementptr inbounds nuw i8, ptr %0, i64 4
  %4 = load i32, ptr %3, align 4, !tbaa !14
  %5 = and i32 %4, 1
  %.not3 = icmp eq i32 %5, 0
  br i1 %.not3, label %7, label %6

6:                                                ; preds = %2
  tail call void @CRYPTO_free(ptr noundef nonnull %0, ptr noundef nonnull @.str, i32 noundef 436) #10
  br label %7

7:                                                ; preds = %6, %2, %1
  ret void
}